; Function Attrs: mustprogress nofree nounwind memory(read, argmem: readwrite) uwtable
define internal fastcc noundef zeroext i1 @_ZL14parse_int_charPPcPiPh(ptr noundef nonnull captures(none) %0, ptr noundef nonnull writeonly captures(none) %1, ptr noundef nonnull writeonly captures(none) %2) unnamed_addr #16 {
  %4 = load ptr, ptr %0, align 8, !tbaa !21
  %5 = load i8, ptr %4, align 1, !tbaa !32
  %6 = icmp eq i8 %5, 32
  br i1 %6, label %.lr.ph, label %._crit_edge

.lr.ph:                                           ; preds = %3, %.lr.ph
  %7 = phi ptr [ %8, %.lr.ph ], [ %4, %3 ]
  %8 = getelementptr inbounds nuw i8, ptr %7, i64 1
  store ptr %8, ptr %0, align 8, !tbaa !21
  %9 = load i8, ptr %8, align 1, !tbaa !32
  %10 = icmp eq i8 %9, 32
  br i1 %10, label %.lr.ph, label %._crit_edge, !llvm.loop !67

._crit_edge:                                      ; preds = %.lr.ph, %3
  store i8 32, ptr %2, align 1, !tbaa !32
  %11 = load ptr, ptr %0, align 8, !tbaa !21
  %12 = load i8, ptr %11, align 1, !tbaa !32
  %13 = sext i8 %12 to i32
  %isdigittmp = add nsw i32 %13, -48
  %isdigit = icmp ult i32 %isdigittmp, 10
  br i1 %isdigit, label %.preheader, label %30

.preheader:                                       ; preds = %._crit_edge
  store i32 %isdigittmp, ptr %1, align 4, !tbaa !4
  %storemerge29 = getelementptr inbounds nuw i8, ptr %11, i64 1
  store ptr %storemerge29, ptr %0, align 8, !tbaa !21
  %14 = load i8, ptr %storemerge29, align 1, !tbaa !32
  %15 = sext i8 %14 to i32
  %isdigittmp2130 = add nsw i32 %15, -48
  %isdigit2231 = icmp ult i32 %isdigittmp2130, 10
  br i1 %isdigit2231, label %.lr.ph34, label %._crit_edge35

.lr.ph34:                                         ; preds = %.preheader, %.lr.ph34
  %16 = phi i32 [ %20, %.lr.ph34 ], [ %15, %.preheader ]
  %storemerge33 = phi ptr [ %storemerge, %.lr.ph34 ], [ %storemerge29, %.preheader ]
  %storemerge2432 = phi i32 [ %storemerge24, %.lr.ph34 ], [ %isdigittmp, %.preheader ]
  %17 = mul nsw i32 %storemerge2432, 10
  %18 = add nsw i32 %16, %17
  %storemerge24 = add nsw i32 %18, -48
  store i32 %storemerge24, ptr %1, align 4, !tbaa !4
  %storemerge = getelementptr inbounds nuw i8, ptr %storemerge33, i64 1
  store ptr %storemerge, ptr %0, align 8, !tbaa !21
  %19 = load i8, ptr %storemerge, align 1, !tbaa !32
  %20 = sext i8 %19 to i32
  %isdigittmp21 = add nsw i32 %20, -48
  %isdigit22 = icmp ult i32 %isdigittmp21, 10
  br i1 %isdigit22, label %.lr.ph34, label %._crit_edge35, !llvm.loop !68

._crit_edge35:                                    ; preds = %.lr.ph34, %.preheader
  %.lcssa25 = phi i8 [ %14, %.preheader ], [ %19, %.lr.ph34 ]
  %.lcssa = phi i32 [ %15, %.preheader ], [ %20, %.lr.ph34 ]
  %21 = tail call i32 @isalpha(i32 noundef %.lcssa) #31
  %.not = icmp eq i32 %21, 0
  br i1 %.not, label %25, label %22

22:                                               ; preds = %._crit_edge35
  store i8 %.lcssa25, ptr %2, align 1, !tbaa !32
  %23 = load ptr, ptr %0, align 8, !tbaa !21
  %24 = getelementptr inbounds nuw i8, ptr %23, i64 1
  store ptr %24, ptr %0, align 8, !tbaa !21
  %.pre = load i8, ptr %24, align 1, !tbaa !32
  br label %25

25:                                               ; preds = %22, %._crit_edge35
  %26 = phi i8 [ %.pre, %22 ], [ %.lcssa25, %._crit_edge35 ]
  %27 = sext i8 %26 to i32
  %28 = tail call i32 @isalnum(i32 noundef %27) #31
  %.not23 = icmp eq i32 %28, 0
  br i1 %.not23, label %31, label %29

29:                                               ; preds = %25
  store ptr %4, ptr %0, align 8, !tbaa !21
  br label %31

30:                                               ; preds = %._crit_edge
  store i32 -92637, ptr %1, align 4, !tbaa !4
  br label %31

31:                                               ; preds = %25, %29, %30
  %.0 = phi i1 [ false, %29 ], [ false, %30 ], [ true, %25 ]
  ret i1 %.0
}